target datalayout = "e-m:e-p270:32:32-p271:32:32-p272:64:64-i64:64-i128:128-f80:128-n8:16:32:64-S128"
target triple = "x86_64-pc-linux-gnu"

%struct.PHP_SHA384_CTX = type { [8 x i64], [2 x i64], [128 x i8] }

; Function Attrs: nounwind uwtable
define void @PHP_SHA384Update(ptr noundef %0, ptr noundef %1, i64 noundef %2) #1 {
  %4 = alloca ptr, align 8
  %5 = alloca ptr, align 8
  %6 = alloca i64, align 8
  %7 = alloca i32, align 4
  %8 = alloca i32, align 4
  %9 = alloca i64, align 8
  store ptr %0, ptr %4, align 8
  store ptr %1, ptr %5, align 8
  store i64 %2, ptr %6, align 8
  store i64 0, ptr %9, align 8
  %10 = load ptr, ptr %4, align 8
  %11 = getelementptr inbounds %struct.PHP_SHA384_CTX, ptr %10, i32 0, i32 1
  %12 = getelementptr inbounds [2 x i64], ptr %11, i64 0, i64 0
  %13 = load i64, ptr %12, align 8
  %14 = lshr i64 %13, 3
  %15 = and i64 %14, 127
  %16 = trunc i64 %15 to i32
  store i32 %16, ptr %7, align 4
  %17 = load i64, ptr %6, align 8
  %18 = shl i64 %17, 3
  %19 = load ptr, ptr %4, align 8
  %20 = getelementptr inbounds %struct.PHP_SHA384_CTX, ptr %19, i32 0, i32 1
  %21 = getelementptr inbounds [2 x i64], ptr %20, i64 0, i64 0
  %22 = load i64, ptr %21, align 8
  %23 = add i64 %22, %18
  store i64 %23, ptr %21, align 8
  %24 = load i64, ptr %6, align 8
  %25 = shl i64 %24, 3
  %26 = icmp ult i64 %23, %25
  br i1 %26, label %27, label %33

27:                                               ; preds = %3
  %28 = load ptr, ptr %4, align 8
  %29 = getelementptr inbounds %struct.PHP_SHA384_CTX, ptr %28, i32 0, i32 1
  %30 = getelementptr inbounds [2 x i64], ptr %29, i64 0, i64 1
  %31 = load i64, ptr %30, align 8
  %32 = add i64 %31, 1
  store i64 %32, ptr %30, align 8
  br label %33

33:                                               ; preds = %27, %3
  %34 = load i64, ptr %6, align 8
  %35 = lshr i64 %34, 61
  %36 = load ptr, ptr %4, align 8
  %37 = getelementptr inbounds %struct.PHP_SHA384_CTX, ptr %36, i32 0, i32 1
  %38 = getelementptr inbounds [2 x i64], ptr %37, i64 0, i64 1
  %39 = load i64, ptr %38, align 8
  %40 = add i64 %39, %35
  store i64 %40, ptr %38, align 8
  %41 = load i32, ptr %7, align 4
  %42 = sub i32 128, %41
  store i32 %42, ptr %8, align 4
  %43 = load i64, ptr %6, align 8
  %44 = load i32, ptr %8, align 4
  %45 = zext i32 %44 to i64
  %46 = icmp uge i64 %43, %45
  br i1 %46, label %47, label %80

47:                                               ; preds = %33
  %48 = load ptr, ptr %4, align 8
  %49 = getelementptr inbounds %struct.PHP_SHA384_CTX, ptr %48, i32 0, i32 2
  %50 = load i32, ptr %7, align 4
  %51 = zext i32 %50 to i64
  %52 = getelementptr inbounds [128 x i8], ptr %49, i64 0, i64 %51
  %53 = load ptr, ptr %5, align 8
  %54 = load i32, ptr %8, align 4
  %55 = zext i32 %54 to i64
  call void @llvm.memcpy.p0.p0.i64(ptr align 1 %52, ptr align 1 %53, i64 %55, i1 false)
  %56 = load ptr, ptr %4, align 8
  %57 = getelementptr inbounds %struct.PHP_SHA384_CTX, ptr %56, i32 0, i32 0
  %58 = getelementptr inbounds [8 x i64], ptr %57, i64 0, i64 0
  %59 = load ptr, ptr %4, align 8
  %60 = getelementptr inbounds %struct.PHP_SHA384_CTX, ptr %59, i32 0, i32 2
  %61 = getelementptr inbounds [128 x i8], ptr %60, i64 0, i64 0
  call void @SHA512Transform(ptr noundef %58, ptr noundef %61)
  %62 = load i32, ptr %8, align 4
  %63 = zext i32 %62 to i64
  store i64 %63, ptr %9, align 8
  br label %64

64:                                               ; preds = %76, %47
  %65 = load i64, ptr %9, align 8
  %66 = add i64 %65, 127
  %67 = load i64, ptr %6, align 8
  %68 = icmp ult i64 %66, %67
  br i1 %68, label %69, label %79

69:                                               ; preds = %64
  %70 = load ptr, ptr %4, align 8
  %71 = getelementptr inbounds %struct.PHP_SHA384_CTX, ptr %70, i32 0, i32 0
  %72 = getelementptr inbounds [8 x i64], ptr %71, i64 0, i64 0
  %73 = load ptr, ptr %5, align 8
  %74 = load i64, ptr %9, align 8
  %75 = getelementptr inbounds i8, ptr %73, i64 %74
  call void @SHA512Transform(ptr noundef %72, ptr noundef %75)
  br label %76

76:                                               ; preds = %69
  %77 = load i64, ptr %9, align 8
  %78 = add i64 %77, 128
  store i64 %78, ptr %9, align 8
  br label %64

79:                                               ; preds = %64
  store i32 0, ptr %7, align 4
  br label %80

80:                                               ; preds = %79, %33
  %81 = load ptr, ptr %4, align 8
  %82 = getelementptr inbounds %struct.PHP_SHA384_CTX, ptr %81, i32 0, i32 2
  %83 = load i32, ptr %7, align 4
  %84 = zext i32 %83 to i64
  %85 = getelementptr inbounds [128 x i8], ptr %82, i64 0, i64 %84
  %86 = load ptr, ptr %5, align 8
  %87 = load i64, ptr %9, align 8
  %88 = getelementptr inbounds i8, ptr %86, i64 %87
  %89 = load i64, ptr %6, align 8
  %90 = load i64, ptr %9, align 8
  %91 = sub i64 %89, %90
  call void @llvm.memcpy.p0.p0.i64(ptr align 1 %85, ptr align 1 %88, i64 %91, i1 false)
  ret void
}