; Function Attrs: nounwind uwtable
define void @PHP_SHA384Update(ptr nocapture noundef %0, ptr nocapture noundef readonly %1, i64 noundef %2) #2 {
._crit_edge:
  %3 = getelementptr inbounds i8, ptr %0, i64 64
  %4 = load i64, ptr %3, align 8
  %5 = trunc i64 %4 to i32
  %6 = lshr i32 %5, 3
  %7 = and i32 %6, 127
  %8 = shl i64 %2, 3
  %9 = add i64 %4, %8
  store i64 %9, ptr %3, align 8
  %10 = icmp ult i64 %9, %8
  %11 = getelementptr inbounds i8, ptr %0, i64 72
  %12 = load i64, ptr %11, align 8
  %13 = zext i1 %10 to i64
  %14 = add i64 %12, %13
  %15 = lshr i64 %2, 61
  %16 = getelementptr inbounds i8, ptr %0, i64 72
  %17 = add i64 %14, %15
  store i64 %17, ptr %16, align 8
  %18 = sub nuw nsw i32 128, %7
  %19 = zext nneg i32 %18 to i64
  %.not = icmp ugt i64 %19, %2
  br i1 %.not, label %.loopexit, label %20

20:                                               ; preds = %._crit_edge
  %21 = getelementptr inbounds i8, ptr %0, i64 80
  %22 = zext nneg i32 %7 to i64
  %23 = getelementptr inbounds [128 x i8], ptr %21, i64 0, i64 %22
  tail call void @llvm.memcpy.p0.p0.i64(ptr noundef nonnull align 1 dereferenceable(1) %23, ptr noundef nonnull align 1 dereferenceable(1) %1, i64 %19, i1 false)
  tail call fastcc void @SHA512Transform(ptr noundef nonnull %0, ptr noundef nonnull %21)
  %24 = add nuw nsw i64 %19, 127
  %25 = icmp ult i64 %24, %2
  br i1 %25, label %.lr.ph, label %.loopexit

.lr.ph:                                           ; preds = %20, %.lr.ph
  %.031 = phi i64 [ %27, %.lr.ph ], [ %19, %20 ]
  %26 = getelementptr inbounds i8, ptr %1, i64 %.031
  tail call fastcc void @SHA512Transform(ptr noundef %0, ptr noundef %26)
  %27 = add i64 %.031, 128
  %28 = add i64 %.031, 255
  %29 = icmp ult i64 %28, %2
  br i1 %29, label %.lr.ph, label %.loopexit

.loopexit:                                        ; preds = %.lr.ph, %20, %._crit_edge
  %.028 = phi i32 [ %7, %._crit_edge ], [ 0, %20 ], [ 0, %.lr.ph ]
  %.1 = phi i64 [ 0, %._crit_edge ], [ %19, %20 ], [ %27, %.lr.ph ]
  %30 = getelementptr inbounds i8, ptr %0, i64 80
  %31 = zext nneg i32 %.028 to i64
  %32 = getelementptr inbounds [128 x i8], ptr %30, i64 0, i64 %31
  %33 = getelementptr inbounds i8, ptr %1, i64 %.1
  %34 = sub i64 %2, %.1
  tail call void @llvm.memcpy.p0.p0.i64(ptr nonnull align 1 %32, ptr align 1 %33, i64 %34, i1 false)
  ret void
}